; Function Attrs: mustprogress nounwind uwtable
define dso_local noundef zeroext i1 @_ZNK4llvm11Instruction13hasDbgRecordsEv(ptr nocapture noundef nonnull readonly align 8 dereferenceable(72) %0) local_unnamed_addr #3 align 2 {
  %2 = getelementptr inbounds nuw i8, ptr %0, i64 64
  %3 = load ptr, ptr %2, align 8
  %.not.i.i = icmp eq ptr %3, null
  br i1 %.not.i.i, label %_ZNK4llvm11Instruction17getDbgRecordRangeEv.exit, label %4

4:                                                ; preds = %1
  %5 = tail call { ptr, ptr } @_ZN4llvm9DbgMarker17getDbgRecordRangeEv(ptr noundef nonnull align 8 dereferenceable(24) %3) #21
  br label %_ZNK4llvm11Instruction17getDbgRecordRangeEv.exit

_ZNK4llvm11Instruction17getDbgRecordRangeEv.exit: ; preds = %1, %4
  %.pn.i.i = phi { ptr, ptr } [ %5, %4 ], [ { ptr getelementptr inbounds nuw (i8, ptr @_ZN4llvm9DbgMarker14EmptyDbgMarkerE, i64 8), ptr getelementptr inbounds nuw (i8, ptr @_ZN4llvm9DbgMarker14EmptyDbgMarkerE, i64 8) }, %1 ]
  %6 = extractvalue { ptr, ptr } %.pn.i.i, 0
  %7 = extractvalue { ptr, ptr } %.pn.i.i, 1
  %8 = icmp ne ptr %6, %7
  ret i1 %8
}